target datalayout = "e-m:e-p270:32:32-p271:32:32-p272:64:64-i64:64-i128:128-f80:128-n8:16:32:64-S128"
target triple = "x86_64-pc-linux-gnu"

%struct._packet_info = type { ptr, ptr, i32, i32, %struct.nstime_t, %struct.nstime_t, %struct.nstime_t, i8, ptr, ptr, ptr, ptr, %struct._address, %struct._address, %struct._address, %struct._address, %struct._address, %struct._address, i32, ptr, i8, [3 x i8], %struct.anon, i32, i32, i32, i32, ptr, i8, ptr, ptr, i16, i16, i32, i32, i16, i32, i32, ptr, ptr, ptr, i8, i8, i16, i16, i16, i32, i16, i16, ptr, ptr, ptr, ptr, ptr, i32, i32 }
%struct.nstime_t = type { i64, i32 }
%struct._address = type { i32, i32, ptr, ptr }
%struct.anon = type { i8, [3 x i8] }
%struct.lapd_phdr = type { i16, i8 }

; Function Attrs: null_pointer_is_valid sspstrong uwtable
define internal i32 @dissect_linux_lapd(ptr noundef %0, ptr noundef %1, ptr noundef %2, ptr noundef %3) #0 {
  %5 = alloca ptr, align 8
  %6 = alloca ptr, align 8
  %7 = alloca ptr, align 8
  %8 = alloca ptr, align 8
  %9 = alloca i32, align 4
  store ptr %0, ptr %5, align 8
  store ptr %1, ptr %6, align 8
  store ptr %2, ptr %7, align 8
  store ptr %3, ptr %8, align 8
  call void @llvm.lifetime.start.p0(i64 4, ptr %9) #12
  store i32 6, ptr %9, align 4
  %10 = load ptr, ptr %6, align 8
  %11 = getelementptr inbounds nuw %struct._packet_info, ptr %10, i32 0, i32 9
  %12 = load ptr, ptr %11, align 8
  %13 = getelementptr inbounds nuw %struct.lapd_phdr, ptr %12, i32 0, i32 0
  %14 = load i16, ptr %13, align 8
  %15 = zext i16 %14 to i32
  %16 = icmp eq i32 %15, 4
  br i1 %16, label %17, label %31

17:                                               ; preds = %4
  %18 = load ptr, ptr %6, align 8
  %19 = getelementptr inbounds nuw %struct._packet_info, ptr %18, i32 0, i32 9
  %20 = load ptr, ptr %19, align 8
  %21 = getelementptr inbounds nuw %struct.lapd_phdr, ptr %20, i32 0, i32 1
  %22 = load i8, ptr %21, align 2
  %23 = icmp ne i8 %22, 0
  br i1 %23, label %24, label %27

24:                                               ; preds = %17
  %25 = load i32, ptr %9, align 4
  %26 = or i32 %25, 32
  store i32 %26, ptr %9, align 4
  br label %30

27:                                               ; preds = %17
  %28 = load i32, ptr %9, align 4
  %29 = or i32 %28, 24
  store i32 %29, ptr %9, align 4
  br label %30

30:                                               ; preds = %27, %24
  br label %57

31:                                               ; preds = %4
  %32 = load ptr, ptr %6, align 8
  %33 = getelementptr inbounds nuw %struct._packet_info, ptr %32, i32 0, i32 9
  %34 = load ptr, ptr %33, align 8
  %35 = getelementptr inbounds nuw %struct.lapd_phdr, ptr %34, i32 0, i32 0
  %36 = load i16, ptr %35, align 8
  %37 = zext i16 %36 to i32
  %38 = icmp eq i32 %37, 3
  br i1 %38, label %39, label %42

39:                                               ; preds = %31
  %40 = load i32, ptr %9, align 4
  %41 = or i32 %40, 56
  store i32 %41, ptr %9, align 4
  br label %56

42:                                               ; preds = %31
  %43 = load ptr, ptr %6, align 8
  %44 = getelementptr inbounds nuw %struct._packet_info, ptr %43, i32 0, i32 9
  %45 = load ptr, ptr %44, align 8
  %46 = getelementptr inbounds nuw %struct.lapd_phdr, ptr %45, i32 0, i32 1
  %47 = load i8, ptr %46, align 2
  %48 = icmp ne i8 %47, 0
  br i1 %48, label %49, label %52

49:                                               ; preds = %42
  %50 = load i32, ptr %9, align 4
  %51 = or i32 %50, 40
  store i32 %51, ptr %9, align 4
  br label %55

52:                                               ; preds = %42
  %53 = load i32, ptr %9, align 4
  %54 = or i32 %53, 16
  store i32 %54, ptr %9, align 4
  br label %55

55:                                               ; preds = %52, %49
  br label %56

56:                                               ; preds = %55, %39
  br label %57

57:                                               ; preds = %56, %30
  %58 = load ptr, ptr %5, align 8
  %59 = load ptr, ptr %6, align 8
  %60 = load ptr, ptr %7, align 8
  %61 = load i32, ptr %9, align 4
  call void @dissect_lapd_full(ptr noundef %58, ptr noundef %59, ptr noundef %60, i32 noundef %61)
  %62 = load ptr, ptr %5, align 8
  %63 = call i32 @tvb_captured_length(ptr noundef %62)
  call void @llvm.lifetime.end.p0(i64 4, ptr %9) #12
  ret i32 %63
}