; Function Attrs: null_pointer_is_valid sspstrong uwtable
define internal i32 @dissect_linux_lapd(ptr noundef %0, ptr noundef initializes((112, 160), (208, 256)) %1, ptr noundef %2, ptr readnone captures(none) %3) #0 {
  %5 = getelementptr inbounds nuw i8, ptr %1, i64 88
  %6 = load ptr, ptr %5, align 8
  %7 = load i16, ptr %6, align 8
  switch i16 %7, label %11 [
    i16 4, label %8
    i16 3, label %14
  ]

8:                                                ; preds = %4
  %9 = getelementptr inbounds nuw i8, ptr %6, i64 2
  %10 = load i8, ptr %9, align 2
  %.not14 = icmp eq i8 %10, 0
  %. = select i1 %.not14, i32 30, i32 38
  br label %14

11:                                               ; preds = %4
  %12 = getelementptr inbounds nuw i8, ptr %6, i64 2
  %13 = load i8, ptr %12, align 2
  %.not = icmp eq i8 %13, 0
  %.15 = select i1 %.not, i32 22, i32 46
  br label %14

14:                                               ; preds = %11, %4, %8
  %.0 = phi i32 [ %., %8 ], [ 62, %4 ], [ %.15, %11 ]
  tail call fastcc void @dissect_lapd_full(ptr noundef %0, ptr noundef %1, ptr noundef %2, i32 noundef %.0)
  %15 = tail call i32 @tvb_captured_length(ptr noundef %0)
  ret i32 %15
}